target datalayout = "e-m:e-p270:32:32-p271:32:32-p272:64:64-i64:64-i128:128-f80:128-n8:16:32:64-S128"
target triple = "x86_64-pc-linux-gnu"

@hf_mpsse_value = internal global i32 0, align 4
@ett_mpsse_value = internal global i32 0, align 4
@.str.123 = private unnamed_addr constant [3 x i8] c"%s\00", align 1
@.str.229 = private unnamed_addr constant [8 x i8] c" [%s%d]\00", align 1
@.str.230 = private unnamed_addr constant [4 x i8] c" %s\00", align 1
@dissect_read_data_bits_response.value_bits_hf = internal global [8 x ptr] [ptr @hf_mpsse_value_b0, ptr @hf_mpsse_value_b1, ptr @hf_mpsse_value_b2, ptr @hf_mpsse_value_b3, ptr @hf_mpsse_value_b4, ptr @hf_mpsse_value_b5, ptr @hf_mpsse_value_b6, ptr @hf_mpsse_value_b7], align 16
@.str.253 = private unnamed_addr constant [5 x i8] c"High\00", align 1
@.str.254 = private unnamed_addr constant [4 x i8] c"Low\00", align 1

; Function Attrs: null_pointer_is_valid sspstrong uwtable
define internal i32 @dissect_read_data_bits_response(ptr noundef %0, ptr noundef %1, ptr noundef %2, i32 noundef %3, ptr noundef %4, ptr noundef %5, i32 noundef %6) #0 {
  %8 = alloca ptr, align 8
  %9 = alloca ptr, align 8
  %10 = alloca ptr, align 8
  %11 = alloca i32, align 4
  %12 = alloca ptr, align 8
  %13 = alloca ptr, align 8
  %14 = alloca i32, align 4
  %15 = alloca i32, align 4
  %16 = alloca ptr, align 8
  %17 = alloca ptr, align 8
  %18 = alloca ptr, align 8
  %19 = alloca i32, align 4
  %20 = alloca ptr, align 8
  store ptr %0, ptr %8, align 8
  store ptr %1, ptr %9, align 8
  store ptr %2, ptr %10, align 8
  store i32 %3, ptr %11, align 4
  store ptr %4, ptr %12, align 8
  store ptr %5, ptr %13, align 8
  store i32 %6, ptr %14, align 4
  call void @llvm.lifetime.start.p0(i64 4, ptr %15) #11
  call void @llvm.lifetime.start.p0(i64 8, ptr %16) #11
  call void @llvm.lifetime.start.p0(i64 8, ptr %17) #11
  call void @llvm.lifetime.start.p0(i64 8, ptr %18) #11
  call void @llvm.lifetime.start.p0(i64 4, ptr %19) #11
  %21 = load ptr, ptr %10, align 8
  %22 = load i32, ptr @hf_mpsse_value, align 4
  %23 = load ptr, ptr %8, align 8
  %24 = load i32, ptr %11, align 4
  %25 = call ptr @proto_tree_add_item_ret_uint(ptr noundef %21, i32 noundef %22, ptr noundef %23, i32 noundef %24, i32 noundef 1, i32 noundef -2147483648, ptr noundef %15)
  store ptr %25, ptr %17, align 8
  %26 = load ptr, ptr %17, align 8
  %27 = load i32, ptr @ett_mpsse_value, align 4
  %28 = call ptr @proto_item_add_subtree(ptr noundef %26, i32 noundef %27)
  store ptr %28, ptr %18, align 8
  store i32 0, ptr %19, align 4
  br label %29

29:                                               ; preds = %67, %7
  %30 = load i32, ptr %19, align 4
  %31 = icmp ult i32 %30, 8
  br i1 %31, label %32, label %70

32:                                               ; preds = %29
  call void @llvm.lifetime.start.p0(i64 8, ptr %20) #11
  %33 = load i32, ptr %19, align 4
  %34 = shl i32 1, %33
  %35 = load i32, ptr %15, align 4
  %36 = and i32 %34, %35
  %37 = icmp ne i32 %36, 0
  %38 = select i1 %37, ptr @.str.253, ptr @.str.254
  store ptr %38, ptr %20, align 8
  %39 = load ptr, ptr %18, align 8
  %40 = load i32, ptr %19, align 4
  %41 = zext i32 %40 to i64
  %42 = getelementptr [8 x ptr], ptr @dissect_read_data_bits_response.value_bits_hf, i64 0, i64 %41
  %43 = load ptr, ptr %42, align 8
  %44 = load i32, ptr %43, align 4
  %45 = load ptr, ptr %8, align 8
  %46 = load i32, ptr %11, align 4
  %47 = load i32, ptr %15, align 4
  %48 = load ptr, ptr %12, align 8
  %49 = load i32, ptr %19, align 4
  %50 = zext i32 %49 to i64
  %51 = getelementptr ptr, ptr %48, i64 %50
  %52 = load ptr, ptr %51, align 8
  %53 = call ptr (ptr, i32, ptr, i32, i32, i32, ptr, ...) @proto_tree_add_uint_format_value(ptr noundef %39, i32 noundef %44, ptr noundef %45, i32 noundef %46, i32 noundef 1, i32 noundef %47, ptr noundef @.str.123, ptr noundef %52)
  store ptr %53, ptr %16, align 8
  %54 = load ptr, ptr %13, align 8
  %55 = icmp ne ptr %54, null
  br i1 %55, label %56, label %64

56:                                               ; preds = %32
  %57 = load i32, ptr %19, align 4
  %58 = load i32, ptr %14, align 4
  %59 = icmp ult i32 %57, %58
  br i1 %59, label %60, label %64

60:                                               ; preds = %56
  %61 = load ptr, ptr %16, align 8
  %62 = load ptr, ptr %13, align 8
  %63 = load i32, ptr %19, align 4
  call void (ptr, ptr, ...) @proto_item_append_text(ptr noundef %61, ptr noundef @.str.229, ptr noundef %62, i32 noundef %63)
  br label %64

64:                                               ; preds = %60, %56, %32
  %65 = load ptr, ptr %16, align 8
  %66 = load ptr, ptr %20, align 8
  call void (ptr, ptr, ...) @proto_item_append_text(ptr noundef %65, ptr noundef @.str.230, ptr noundef %66)
  call void @llvm.lifetime.end.p0(i64 8, ptr %20) #11
  br label %67

67:                                               ; preds = %64
  %68 = load i32, ptr %19, align 4
  %69 = add i32 %68, 1
  store i32 %69, ptr %19, align 4
  br label %29, !llvm.loop !18

70:                                               ; preds = %29
  call void @llvm.lifetime.end.p0(i64 4, ptr %19) #11
  call void @llvm.lifetime.end.p0(i64 8, ptr %18) #11
  call void @llvm.lifetime.end.p0(i64 8, ptr %17) #11
  call void @llvm.lifetime.end.p0(i64 8, ptr %16) #11
  call void @llvm.lifetime.end.p0(i64 4, ptr %15) #11
  ret i32 1
}