; Function Attrs: null_pointer_is_valid sspstrong uwtable
define internal fastcc void @dissect_read_data_bits_response(ptr noundef %0, ptr noundef %1, i32 noundef %2, ptr noundef readonly captures(none) %3, ptr noundef %4, i32 noundef %5) unnamed_addr #0 {
  %7 = alloca i32, align 4
  call void @llvm.lifetime.start.p0(i64 4, ptr nonnull %7) #8
  %8 = load i32, ptr @hf_mpsse_value, align 4
  %9 = call ptr @proto_tree_add_item_ret_uint(ptr noundef %1, i32 noundef %8, ptr noundef %0, i32 noundef %2, i32 noundef 1, i32 noundef -2147483648, ptr noundef nonnull %7)
  %10 = load i32, ptr @ett_mpsse_value, align 4
  %11 = call ptr @proto_item_add_subtree(ptr noundef %9, i32 noundef %10)
  %.not21.not = icmp eq ptr %4, null
  br i1 %.not21.not, label %.split.us, label %.split.preheader

.split.preheader:                                 ; preds = %6
  %12 = zext i32 %5 to i64
  br label %.split

.split.us:                                        ; preds = %6, %.split.us
  %indvars.iv6 = phi i64 [ %indvars.iv.next7, %.split.us ], [ 0, %6 ]
  %13 = trunc nuw nsw i64 %indvars.iv6 to i32
  %14 = shl nuw nsw i32 1, %13
  %15 = load i32, ptr %7, align 4
  %16 = and i32 %15, %14
  %.not.us = icmp eq i32 %16, 0
  %17 = select i1 %.not.us, ptr @.str.254, ptr @.str.253
  %18 = getelementptr [8 x ptr], ptr @dissect_read_data_bits_response.value_bits_hf, i64 0, i64 %indvars.iv6
  %19 = load ptr, ptr %18, align 8
  %20 = load i32, ptr %19, align 4
  %21 = getelementptr ptr, ptr %3, i64 %indvars.iv6
  %22 = load ptr, ptr %21, align 8
  %23 = call ptr (ptr, i32, ptr, i32, i32, i32, ptr, ...) @proto_tree_add_uint_format_value(ptr noundef %11, i32 noundef %20, ptr noundef %0, i32 noundef %2, i32 noundef 1, i32 noundef %15, ptr noundef nonnull @.str.123, ptr noundef %22)
  call void (ptr, ptr, ...) @proto_item_append_text(ptr noundef %23, ptr noundef nonnull @.str.230, ptr noundef nonnull %17)
  %indvars.iv.next7 = add nuw nsw i64 %indvars.iv6, 1
  %exitcond9.not = icmp eq i64 %indvars.iv.next7, 8
  br i1 %exitcond9.not, label %.split3.us, label %.split.us, !llvm.loop !17

.split:                                           ; preds = %.split.preheader, %37
  %indvars.iv = phi i64 [ 0, %.split.preheader ], [ %indvars.iv.next, %37 ]
  %24 = trunc nuw nsw i64 %indvars.iv to i32
  %25 = shl nuw nsw i32 1, %24
  %26 = load i32, ptr %7, align 4
  %27 = and i32 %26, %25
  %.not = icmp eq i32 %27, 0
  %28 = select i1 %.not, ptr @.str.254, ptr @.str.253
  %29 = getelementptr [8 x ptr], ptr @dissect_read_data_bits_response.value_bits_hf, i64 0, i64 %indvars.iv
  %30 = load ptr, ptr %29, align 8
  %31 = load i32, ptr %30, align 4
  %32 = getelementptr ptr, ptr %3, i64 %indvars.iv
  %33 = load ptr, ptr %32, align 8
  %34 = call ptr (ptr, i32, ptr, i32, i32, i32, ptr, ...) @proto_tree_add_uint_format_value(ptr noundef %11, i32 noundef %31, ptr noundef %0, i32 noundef %2, i32 noundef 1, i32 noundef %26, ptr noundef nonnull @.str.123, ptr noundef %33)
  %35 = icmp samesign ult i64 %indvars.iv, %12
  br i1 %35, label %36, label %37

36:                                               ; preds = %.split
  call void (ptr, ptr, ...) @proto_item_append_text(ptr noundef %34, ptr noundef nonnull @.str.229, ptr noundef nonnull %4, i32 noundef %24)
  br label %37

37:                                               ; preds = %36, %.split
  call void (ptr, ptr, ...) @proto_item_append_text(ptr noundef %34, ptr noundef nonnull @.str.230, ptr noundef nonnull %28)
  %indvars.iv.next = add nuw nsw i64 %indvars.iv, 1
  %exitcond.not = icmp eq i64 %indvars.iv.next, 8
  br i1 %exitcond.not, label %.split3.us, label %.split, !llvm.loop !17

.split3.us:                                       ; preds = %37, %.split.us
  call void @llvm.lifetime.end.p0(i64 4, ptr nonnull %7) #8
  ret void
}